(lp1
(lp2
I386
aI376
aI0
aa(lp3
I340
aI330
aI0
aa(lp4
I184
aI174
aI0
aa(lp5
I151
aI141
aI0
aa(lp6
I138
aI128
aI0
aa(lp7
I240
aI230
aI0
aa(lp8
I228
aI218
aI0
aa(lp9
I154
aI144
aI0
aa(lp10
I159
aI149
aI0
aa(lp11
I230
aI220
aI0
aa(lp12
I226
aI216
aI0
aa(lp13
I201
aI191
aI0
aa(lp14
I359
aI349
aI0
aa(lp15
I111
aI101
aI0
aa(lp16
I217
aI207
aI0
aa(lp17
I241
aI231
aI0
aa(lp18
I313
aI303
aI0
aa(lp19
I297
aI287
aI0
aa(lp20
I279
aI269
aI0
aa(lp21
I305
aI295
aI0
aa.