(lp1
(lp2
I0
aI0
aI0
aI0
aa(lp3
I0
aI0
aI0
aI0
aa(lp4
I10
aI2
aI0
aI0
aa(lp5
I9
aI4
aI0
aI0
aa(lp6
I16
aI0
aI10
aI0
aa(lp7
I4
aI0
aI0
aI0
aa(lp8
I0
aI0
aI0
aI0
aa(lp9
I17
aI0
aI4
aI0
aa(lp10
I16
aI0
aI6
aI0
aa(lp11
I6
aI2
aI1
aI0
aa(lp12
I0
aI0
aI0
aI0
aa(lp13
I12
aI2
aI2
aI0
aa(lp14
I6
aI0
aI0
aI0
aa.